target datalayout = "e-m:e-p270:32:32-p271:32:32-p272:64:64-i64:64-i128:128-f80:128-n8:16:32:64-S128"
target triple = "x86_64-pc-linux-gnu"

%struct.Map_HashTableStruct_t_ = type { ptr, i32, i32, ptr }
%struct.Map_HashEntryStruct_t_ = type { [2 x i32], i32, ptr, ptr }

; Function Attrs: nounwind uwtable
define i32 @Map_SuperTableInsert(ptr noundef %0, ptr noundef %1, ptr noundef %2, i32 noundef %3) #0 {
  %5 = alloca i32, align 4
  %6 = alloca ptr, align 8
  %7 = alloca ptr, align 8
  %8 = alloca ptr, align 8
  %9 = alloca i32, align 4
  %10 = alloca ptr, align 8
  %11 = alloca i32, align 4
  store ptr %0, ptr %6, align 8
  store ptr %1, ptr %7, align 8
  store ptr %2, ptr %8, align 8
  store i32 %3, ptr %9, align 4
  %12 = load ptr, ptr %6, align 8
  %13 = getelementptr inbounds %struct.Map_HashTableStruct_t_, ptr %12, i32 0, i32 2
  %14 = load i32, ptr %13, align 4
  %15 = load ptr, ptr %6, align 8
  %16 = getelementptr inbounds %struct.Map_HashTableStruct_t_, ptr %15, i32 0, i32 1
  %17 = load i32, ptr %16, align 8
  %18 = mul nsw i32 2, %17
  %19 = icmp sge i32 %14, %18
  br i1 %19, label %20, label %22

20:                                               ; preds = %4
  %21 = load ptr, ptr %6, align 8
  call void @Map_SuperTableResize(ptr noundef %21)
  br label %22

22:                                               ; preds = %20, %4
  %23 = load ptr, ptr %7, align 8
  %24 = getelementptr inbounds i32, ptr %23, i64 0
  %25 = load i32, ptr %24, align 4
  %26 = load ptr, ptr %7, align 8
  %27 = getelementptr inbounds i32, ptr %26, i64 1
  %28 = load i32, ptr %27, align 4
  %29 = mul i32 2003, %28
  %30 = add i32 %25, %29
  %31 = load ptr, ptr %6, align 8
  %32 = getelementptr inbounds %struct.Map_HashTableStruct_t_, ptr %31, i32 0, i32 1
  %33 = load i32, ptr %32, align 8
  %34 = urem i32 %30, %33
  store i32 %34, ptr %11, align 4
  %35 = load ptr, ptr %6, align 8
  %36 = getelementptr inbounds %struct.Map_HashTableStruct_t_, ptr %35, i32 0, i32 0
  %37 = load ptr, ptr %36, align 8
  %38 = load i32, ptr %11, align 4
  %39 = zext i32 %38 to i64
  %40 = getelementptr inbounds ptr, ptr %37, i64 %39
  %41 = load ptr, ptr %40, align 8
  store ptr %41, ptr %10, align 8
  br label %42

42:                                               ; preds = %65, %22
  %43 = load ptr, ptr %10, align 8
  %44 = icmp ne ptr %43, null
  br i1 %44, label %45, label %69

45:                                               ; preds = %42
  %46 = load ptr, ptr %10, align 8
  %47 = getelementptr inbounds %struct.Map_HashEntryStruct_t_, ptr %46, i32 0, i32 0
  %48 = getelementptr inbounds [2 x i32], ptr %47, i64 0, i64 0
  %49 = load i32, ptr %48, align 8
  %50 = load ptr, ptr %7, align 8
  %51 = getelementptr inbounds i32, ptr %50, i64 0
  %52 = load i32, ptr %51, align 4
  %53 = icmp eq i32 %49, %52
  br i1 %53, label %54, label %64

54:                                               ; preds = %45
  %55 = load ptr, ptr %10, align 8
  %56 = getelementptr inbounds %struct.Map_HashEntryStruct_t_, ptr %55, i32 0, i32 0
  %57 = getelementptr inbounds [2 x i32], ptr %56, i64 0, i64 1
  %58 = load i32, ptr %57, align 4
  %59 = load ptr, ptr %7, align 8
  %60 = getelementptr inbounds i32, ptr %59, i64 1
  %61 = load i32, ptr %60, align 4
  %62 = icmp eq i32 %58, %61
  br i1 %62, label %63, label %64

63:                                               ; preds = %54
  store i32 1, ptr %5, align 4
  br label %113

64:                                               ; preds = %54, %45
  br label %65

65:                                               ; preds = %64
  %66 = load ptr, ptr %10, align 8
  %67 = getelementptr inbounds %struct.Map_HashEntryStruct_t_, ptr %66, i32 0, i32 3
  %68 = load ptr, ptr %67, align 8
  store ptr %68, ptr %10, align 8
  br label %42, !llvm.loop !10

69:                                               ; preds = %42
  %70 = load ptr, ptr %6, align 8
  %71 = getelementptr inbounds %struct.Map_HashTableStruct_t_, ptr %70, i32 0, i32 3
  %72 = load ptr, ptr %71, align 8
  %73 = call ptr @Extra_MmFixedEntryFetch(ptr noundef %72)
  store ptr %73, ptr %10, align 8
  %74 = load ptr, ptr %10, align 8
  call void @llvm.memset.p0.i64(ptr align 8 %74, i8 0, i64 32, i1 false)
  %75 = load ptr, ptr %7, align 8
  %76 = getelementptr inbounds i32, ptr %75, i64 0
  %77 = load i32, ptr %76, align 4
  %78 = load ptr, ptr %10, align 8
  %79 = getelementptr inbounds %struct.Map_HashEntryStruct_t_, ptr %78, i32 0, i32 0
  %80 = getelementptr inbounds [2 x i32], ptr %79, i64 0, i64 0
  store i32 %77, ptr %80, align 8
  %81 = load ptr, ptr %7, align 8
  %82 = getelementptr inbounds i32, ptr %81, i64 1
  %83 = load i32, ptr %82, align 4
  %84 = load ptr, ptr %10, align 8
  %85 = getelementptr inbounds %struct.Map_HashEntryStruct_t_, ptr %84, i32 0, i32 0
  %86 = getelementptr inbounds [2 x i32], ptr %85, i64 0, i64 1
  store i32 %83, ptr %86, align 4
  %87 = load ptr, ptr %8, align 8
  %88 = load ptr, ptr %10, align 8
  %89 = getelementptr inbounds %struct.Map_HashEntryStruct_t_, ptr %88, i32 0, i32 2
  store ptr %87, ptr %89, align 8
  %90 = load i32, ptr %9, align 4
  %91 = load ptr, ptr %10, align 8
  %92 = getelementptr inbounds %struct.Map_HashEntryStruct_t_, ptr %91, i32 0, i32 1
  store i32 %90, ptr %92, align 8
  %93 = load ptr, ptr %6, align 8
  %94 = getelementptr inbounds %struct.Map_HashTableStruct_t_, ptr %93, i32 0, i32 0
  %95 = load ptr, ptr %94, align 8
  %96 = load i32, ptr %11, align 4
  %97 = zext i32 %96 to i64
  %98 = getelementptr inbounds ptr, ptr %95, i64 %97
  %99 = load ptr, ptr %98, align 8
  %100 = load ptr, ptr %10, align 8
  %101 = getelementptr inbounds %struct.Map_HashEntryStruct_t_, ptr %100, i32 0, i32 3
  store ptr %99, ptr %101, align 8
  %102 = load ptr, ptr %10, align 8
  %103 = load ptr, ptr %6, align 8
  %104 = getelementptr inbounds %struct.Map_HashTableStruct_t_, ptr %103, i32 0, i32 0
  %105 = load ptr, ptr %104, align 8
  %106 = load i32, ptr %11, align 4
  %107 = zext i32 %106 to i64
  %108 = getelementptr inbounds ptr, ptr %105, i64 %107
  store ptr %102, ptr %108, align 8
  %109 = load ptr, ptr %6, align 8
  %110 = getelementptr inbounds %struct.Map_HashTableStruct_t_, ptr %109, i32 0, i32 2
  %111 = load i32, ptr %110, align 4
  %112 = add nsw i32 %111, 1
  store i32 %112, ptr %110, align 4
  store i32 0, ptr %5, align 4
  br label %113

113:                                              ; preds = %69, %63
  %114 = load i32, ptr %5, align 4
  ret i32 %114
}