; Function Attrs: nounwind uwtable
define range(i32 0, 2) i32 @Map_SuperTableInsert(ptr noundef captures(none) %0, ptr noundef readonly captures(none) %1, ptr noundef %2, i32 noundef %3) local_unnamed_addr #5 {
  %5 = getelementptr inbounds nuw i8, ptr %0, i64 12
  %6 = load i32, ptr %5, align 4
  %7 = getelementptr inbounds nuw i8, ptr %0, i64 8
  %8 = load i32, ptr %7, align 8
  %9 = shl nsw i32 %8, 1
  %.not = icmp slt i32 %6, %9
  br i1 %.not, label %11, label %10

10:                                               ; preds = %4
  tail call fastcc void @Map_SuperTableResize(ptr noundef nonnull %0)
  %.pre = load i32, ptr %7, align 8
  br label %11

11:                                               ; preds = %10, %4
  %12 = phi i32 [ %.pre, %10 ], [ %8, %4 ]
  %13 = load i32, ptr %1, align 4
  %14 = getelementptr inbounds nuw i8, ptr %1, i64 4
  %15 = load i32, ptr %14, align 4
  %16 = mul i32 %15, 2003
  %17 = add i32 %16, %13
  %18 = urem i32 %17, %12
  %19 = load ptr, ptr %0, align 8
  %20 = zext i32 %18 to i64
  %21 = getelementptr inbounds nuw ptr, ptr %19, i64 %20
  %.03133 = load ptr, ptr %21, align 8
  %.not3234 = icmp eq ptr %.03133, null
  br i1 %.not3234, label %._crit_edge, label %.lr.ph

.lr.ph:                                           ; preds = %11, %28
  %.03135 = phi ptr [ %.031, %28 ], [ %.03133, %11 ]
  %22 = load i32, ptr %.03135, align 8
  %23 = icmp eq i32 %22, %13
  br i1 %23, label %24, label %28

24:                                               ; preds = %.lr.ph
  %25 = getelementptr inbounds nuw i8, ptr %.03135, i64 4
  %26 = load i32, ptr %25, align 4
  %27 = icmp eq i32 %26, %15
  br i1 %27, label %.loopexit, label %28

28:                                               ; preds = %.lr.ph, %24
  %29 = getelementptr inbounds nuw i8, ptr %.03135, i64 24
  %.031 = load ptr, ptr %29, align 8
  %.not32 = icmp eq ptr %.031, null
  br i1 %.not32, label %._crit_edge, label %.lr.ph, !llvm.loop !10

._crit_edge:                                      ; preds = %28, %11
  %30 = getelementptr inbounds nuw i8, ptr %0, i64 16
  %31 = load ptr, ptr %30, align 8
  %32 = tail call ptr @Extra_MmFixedEntryFetch(ptr noundef %31) #15
  tail call void @llvm.memset.p0.i64(ptr noundef nonnull align 8 dereferenceable(32) %32, i8 0, i64 32, i1 false)
  %33 = load i32, ptr %1, align 4
  store i32 %33, ptr %32, align 8
  %34 = load i32, ptr %14, align 4
  %35 = getelementptr inbounds nuw i8, ptr %32, i64 4
  store i32 %34, ptr %35, align 4
  %36 = getelementptr inbounds nuw i8, ptr %32, i64 16
  store ptr %2, ptr %36, align 8
  %37 = getelementptr inbounds nuw i8, ptr %32, i64 8
  store i32 %3, ptr %37, align 8
  %38 = load ptr, ptr %0, align 8
  %39 = getelementptr inbounds nuw ptr, ptr %38, i64 %20
  %40 = load ptr, ptr %39, align 8
  %41 = getelementptr inbounds nuw i8, ptr %32, i64 24
  store ptr %40, ptr %41, align 8
  %42 = load ptr, ptr %0, align 8
  %43 = getelementptr inbounds nuw ptr, ptr %42, i64 %20
  store ptr %32, ptr %43, align 8
  %44 = load i32, ptr %5, align 4
  %45 = add nsw i32 %44, 1
  store i32 %45, ptr %5, align 4
  br label %.loopexit

.loopexit:                                        ; preds = %24, %._crit_edge
  %.0 = phi i32 [ 0, %._crit_edge ], [ 1, %24 ]
  ret i32 %.0
}